target datalayout = "e-m:e-p270:32:32-p271:32:32-p272:64:64-i64:64-i128:128-f80:128-n8:16:32:64-S128"
target triple = "x86_64-pc-linux-gnu"

%struct.text = type { ptr, ptr }

; Function Attrs: nounwind uwtable
define internal zeroext i1 @next_is_folded_header(ptr noundef %0) #0 {
  %2 = alloca i1, align 1
  %3 = alloca ptr, align 8
  %4 = alloca ptr, align 8
  %5 = alloca ptr, align 8
  %6 = alloca ptr, align 8
  store ptr %0, ptr %3, align 8
  %7 = load ptr, ptr %3, align 8
  %8 = getelementptr inbounds %struct.text, ptr %7, i32 0, i32 1
  %9 = load ptr, ptr %8, align 8
  store ptr %9, ptr %4, align 8
  %10 = load ptr, ptr %4, align 8
  %11 = icmp eq ptr %10, null
  br i1 %11, label %12, label %13

12:                                               ; preds = %1
  store i1 false, ptr %2, align 1
  br label %62

13:                                               ; preds = %1
  %14 = load ptr, ptr %4, align 8
  %15 = getelementptr inbounds %struct.text, ptr %14, i32 0, i32 0
  %16 = load ptr, ptr %15, align 8
  %17 = icmp eq ptr %16, null
  br i1 %17, label %18, label %19

18:                                               ; preds = %13
  store i1 false, ptr %2, align 1
  br label %62

19:                                               ; preds = %13
  %20 = load ptr, ptr %4, align 8
  %21 = getelementptr inbounds %struct.text, ptr %20, i32 0, i32 0
  %22 = load ptr, ptr %21, align 8
  %23 = call ptr @lineGetData(ptr noundef %22)
  store ptr %23, ptr %5, align 8
  %24 = call ptr @__ctype_b_loc() #10
  %25 = load ptr, ptr %24, align 8
  %26 = load ptr, ptr %5, align 8
  %27 = getelementptr inbounds i8, ptr %26, i64 0
  %28 = load i8, ptr %27, align 1
  %29 = sext i8 %28 to i32
  %30 = sext i32 %29 to i64
  %31 = getelementptr inbounds i16, ptr %25, i64 %30
  %32 = load i16, ptr %31, align 2
  %33 = zext i16 %32 to i32
  %34 = and i32 %33, 1
  %35 = icmp ne i32 %34, 0
  br i1 %35, label %36, label %37

36:                                               ; preds = %19
  store i1 true, ptr %2, align 1
  br label %62

37:                                               ; preds = %19
  %38 = load ptr, ptr %5, align 8
  %39 = call ptr @strchr(ptr noundef %38, i32 noundef 61) #9
  %40 = icmp eq ptr %39, null
  br i1 %40, label %41, label %42

41:                                               ; preds = %37
  store i1 false, ptr %2, align 1
  br label %62

42:                                               ; preds = %37
  %43 = load ptr, ptr %3, align 8
  %44 = getelementptr inbounds %struct.text, ptr %43, i32 0, i32 0
  %45 = load ptr, ptr %44, align 8
  %46 = call ptr @lineGetData(ptr noundef %45)
  store ptr %46, ptr %5, align 8
  %47 = load ptr, ptr %5, align 8
  %48 = call ptr @strchr(ptr noundef %47, i32 noundef 0) #9
  store ptr %48, ptr %6, align 8
  br label %49

49:                                               ; preds = %59, %42
  %50 = load ptr, ptr %6, align 8
  %51 = getelementptr inbounds i8, ptr %50, i32 -1
  store ptr %51, ptr %6, align 8
  %52 = load ptr, ptr %5, align 8
  %53 = icmp ugt ptr %51, %52
  br i1 %53, label %54, label %61

54:                                               ; preds = %49
  %55 = load ptr, ptr %6, align 8
  %56 = load i8, ptr %55, align 1
  %57 = sext i8 %56 to i32
  switch i32 %57, label %60 [
    i32 59, label %58
    i32 10, label %59
    i32 32, label %59
    i32 13, label %59
    i32 9, label %59
  ]

58:                                               ; preds = %54
  store i1 true, ptr %2, align 1
  br label %62

59:                                               ; preds = %54, %54, %54, %54
  br label %49

60:                                               ; preds = %54
  store i1 false, ptr %2, align 1
  br label %62

61:                                               ; preds = %49
  store i1 false, ptr %2, align 1
  br label %62

62:                                               ; preds = %61, %60, %58, %41, %36, %18, %12
  %63 = load i1, ptr %2, align 1
  ret i1 %63
}