; Function Attrs: nounwind uwtable
define internal fastcc noundef zeroext i1 @next_is_folded_header(ptr nocapture noundef readonly %0) unnamed_addr #0 {
  %2 = getelementptr inbounds i8, ptr %0, i64 8
  %3 = load ptr, ptr %2, align 8
  %4 = icmp eq ptr %3, null
  br i1 %4, label %.loopexit, label %5

5:                                                ; preds = %1
  %6 = load ptr, ptr %3, align 8
  %7 = icmp eq ptr %6, null
  br i1 %7, label %.loopexit, label %8

8:                                                ; preds = %5
  %9 = tail call ptr @lineGetData(ptr noundef nonnull %6) #19
  %10 = tail call ptr @__ctype_b_loc() #22
  %11 = load ptr, ptr %10, align 8
  %12 = load i8, ptr %9, align 1
  %13 = sext i8 %12 to i64
  %14 = getelementptr inbounds i16, ptr %11, i64 %13
  %15 = load i16, ptr %14, align 2
  %16 = and i16 %15, 1
  %.not = icmp eq i16 %16, 0
  br i1 %.not, label %17, label %.loopexit

17:                                               ; preds = %8
  %18 = tail call ptr @strchr(ptr noundef nonnull dereferenceable(1) %9, i32 noundef 61) #21
  %19 = icmp eq ptr %18, null
  br i1 %19, label %.loopexit, label %20

20:                                               ; preds = %17
  %21 = load ptr, ptr %0, align 8
  %22 = tail call ptr @lineGetData(ptr noundef %21) #19
  %strlen = tail call i64 @strlen(ptr nonnull dereferenceable(1) %22)
  %strchr = getelementptr inbounds i8, ptr %22, i64 %strlen
  %23 = getelementptr inbounds i8, ptr %strchr, i64 -1
  %24 = icmp ugt ptr %23, %22
  br i1 %24, label %.lr.ph, label %.loopexit

.lr.ph:                                           ; preds = %20, %27
  %25 = phi ptr [ %28, %27 ], [ %23, %20 ]
  %26 = load i8, ptr %25, align 1
  switch i8 %26, label %.loopexit [
    i8 59, label %.loopexit.loopexit
    i8 10, label %27
    i8 32, label %27
    i8 13, label %27
    i8 9, label %27
  ]

27:                                               ; preds = %.lr.ph, %.lr.ph, %.lr.ph, %.lr.ph
  %28 = getelementptr inbounds i8, ptr %25, i64 -1
  %29 = icmp ugt ptr %28, %22
  br i1 %29, label %.lr.ph, label %.loopexit

.loopexit.loopexit:                               ; preds = %.lr.ph
  br label %.loopexit

.loopexit:                                        ; preds = %27, %.lr.ph, %.loopexit.loopexit, %20, %17, %8, %5, %1
  %.012 = phi i1 [ false, %1 ], [ false, %5 ], [ true, %8 ], [ false, %17 ], [ false, %20 ], [ true, %.loopexit.loopexit ], [ false, %.lr.ph ], [ false, %27 ]
  ret i1 %.012
}